; Function Attrs: mustprogress nofree norecurse nosync nounwind willreturn memory(read, argmem: readwrite, inaccessiblemem: none) uwtable
define hidden void @_ZN3sat12local_search14set_parametersEv(ptr noundef nonnull align 8 captures(none) dereferenceable(232) initializes((144, 152), (208, 212)) %0) local_unnamed_addr #6 align 2 {
  %2 = getelementptr inbounds nuw i8, ptr %0, i64 208
  %3 = getelementptr inbounds nuw i8, ptr %0, i64 16
  %4 = load i32, ptr %3, align 8, !tbaa !74
  store i32 %4, ptr %2, align 8, !tbaa !71
  %5 = getelementptr inbounds nuw i8, ptr %0, i64 20
  %6 = load i32, ptr %5, align 4, !tbaa !75
  %7 = getelementptr inbounds nuw i8, ptr %0, i64 144
  store i32 %6, ptr %7, align 8, !tbaa !76
  %8 = getelementptr inbounds nuw i8, ptr %0, i64 40
  %9 = load ptr, ptr %8, align 8, !tbaa !49
  %10 = icmp eq ptr %9, null
  br i1 %10, label %_ZNK3sat12local_search8num_varsEv.exit, label %11

11:                                               ; preds = %1
  %12 = getelementptr inbounds i8, ptr %9, i64 -4
  %13 = load i32, ptr %12, align 4, !tbaa !13
  %14 = mul i32 %13, 20
  %15 = add i32 %14, -20
  br label %_ZNK3sat12local_search8num_varsEv.exit

_ZNK3sat12local_search8num_varsEv.exit:           ; preds = %1, %11
  %.0.i.i = phi i32 [ %15, %11 ], [ -20, %1 ]
  %.sroa.speculated = tail call i32 @llvm.umin.i32(i32 %.0.i.i, i32 131072)
  %16 = getelementptr inbounds nuw i8, ptr %0, i64 148
  store i32 %.sroa.speculated, ptr %16, align 4, !tbaa !77
  ret void
}